target datalayout = "e-m:e-p270:32:32-p271:32:32-p272:64:64-i64:64-i128:128-f80:128-n8:16:32:64-S128"
target triple = "x86_64-pc-linux-gnu"

@stderr = external global ptr, align 8
@.str.12 = private unnamed_addr constant [10 x i8] c"/dev/null\00", align 1
@.str.13 = private unnamed_addr constant [22 x i8] c"Can't open /dev/null\0A\00", align 1
@.str.14 = private unnamed_addr constant [21 x i8] c"dup2(%d, %d) failed\0A\00", align 1

; Function Attrs: nounwind uwtable
define i32 @close_std_descriptors() #0 {
  %1 = alloca i32, align 4
  %2 = alloca [3 x i32], align 4
  %3 = alloca i32, align 4
  %4 = call i32 (ptr, i32, ...) @open(ptr noundef @.str.12, i32 noundef 0)
  %5 = getelementptr inbounds [3 x i32], ptr %2, i64 0, i64 0
  store i32 %4, ptr %5, align 4
  %6 = call i32 (ptr, i32, ...) @open(ptr noundef @.str.12, i32 noundef 1)
  %7 = getelementptr inbounds [3 x i32], ptr %2, i64 0, i64 1
  store i32 %6, ptr %7, align 4
  %8 = call i32 (ptr, i32, ...) @open(ptr noundef @.str.12, i32 noundef 1)
  %9 = getelementptr inbounds [3 x i32], ptr %2, i64 0, i64 2
  store i32 %8, ptr %9, align 4
  %10 = getelementptr inbounds [3 x i32], ptr %2, i64 0, i64 0
  %11 = load i32, ptr %10, align 4
  %12 = icmp eq i32 %11, -1
  br i1 %12, label %21, label %13

13:                                               ; preds = %0
  %14 = getelementptr inbounds [3 x i32], ptr %2, i64 0, i64 1
  %15 = load i32, ptr %14, align 4
  %16 = icmp eq i32 %15, -1
  br i1 %16, label %21, label %17

17:                                               ; preds = %13
  %18 = getelementptr inbounds [3 x i32], ptr %2, i64 0, i64 2
  %19 = load i32, ptr %18, align 4
  %20 = icmp eq i32 %19, -1
  br i1 %20, label %21, label %44

21:                                               ; preds = %17, %13, %0
  %22 = load ptr, ptr @stderr, align 8
  %23 = call i32 @fputs(ptr noundef @.str.13, ptr noundef %22)
  store i32 0, ptr %3, align 4
  br label %24

24:                                               ; preds = %40, %21
  %25 = load i32, ptr %3, align 4
  %26 = icmp sle i32 %25, 2
  br i1 %26, label %27, label %43

27:                                               ; preds = %24
  %28 = load i32, ptr %3, align 4
  %29 = sext i32 %28 to i64
  %30 = getelementptr inbounds [3 x i32], ptr %2, i64 0, i64 %29
  %31 = load i32, ptr %30, align 4
  %32 = icmp ne i32 %31, -1
  br i1 %32, label %33, label %39

33:                                               ; preds = %27
  %34 = load i32, ptr %3, align 4
  %35 = sext i32 %34 to i64
  %36 = getelementptr inbounds [3 x i32], ptr %2, i64 0, i64 %35
  %37 = load i32, ptr %36, align 4
  %38 = call i32 @close(i32 noundef %37)
  br label %39

39:                                               ; preds = %33, %27
  br label %40

40:                                               ; preds = %39
  %41 = load i32, ptr %3, align 4
  %42 = add nsw i32 %41, 1
  store i32 %42, ptr %3, align 4
  br label %24

43:                                               ; preds = %24
  store i32 -1, ptr %1, align 4
  br label %109

44:                                               ; preds = %17
  store i32 0, ptr %3, align 4
  br label %45

45:                                               ; preds = %85, %44
  %46 = load i32, ptr %3, align 4
  %47 = icmp sle i32 %46, 2
  br i1 %47, label %48, label %88

48:                                               ; preds = %45
  %49 = load i32, ptr %3, align 4
  %50 = sext i32 %49 to i64
  %51 = getelementptr inbounds [3 x i32], ptr %2, i64 0, i64 %50
  %52 = load i32, ptr %51, align 4
  %53 = load i32, ptr %3, align 4
  %54 = call i32 @dup2(i32 noundef %52, i32 noundef %53) #10
  %55 = icmp eq i32 %54, -1
  br i1 %55, label %56, label %84

56:                                               ; preds = %48
  %57 = load ptr, ptr @stderr, align 8
  %58 = load i32, ptr %3, align 4
  %59 = sext i32 %58 to i64
  %60 = getelementptr inbounds [3 x i32], ptr %2, i64 0, i64 %59
  %61 = load i32, ptr %60, align 4
  %62 = load i32, ptr %3, align 4
  %63 = call i32 (ptr, ptr, ...) @fprintf(ptr noundef %57, ptr noundef @.str.14, i32 noundef %61, i32 noundef %62) #10
  store i32 0, ptr %3, align 4
  br label %64

64:                                               ; preds = %80, %56
  %65 = load i32, ptr %3, align 4
  %66 = icmp sle i32 %65, 2
  br i1 %66, label %67, label %83

67:                                               ; preds = %64
  %68 = load i32, ptr %3, align 4
  %69 = sext i32 %68 to i64
  %70 = getelementptr inbounds [3 x i32], ptr %2, i64 0, i64 %69
  %71 = load i32, ptr %70, align 4
  %72 = icmp ne i32 %71, -1
  br i1 %72, label %73, label %79

73:                                               ; preds = %67
  %74 = load i32, ptr %3, align 4
  %75 = sext i32 %74 to i64
  %76 = getelementptr inbounds [3 x i32], ptr %2, i64 0, i64 %75
  %77 = load i32, ptr %76, align 4
  %78 = call i32 @close(i32 noundef %77)
  br label %79

79:                                               ; preds = %73, %67
  br label %80

80:                                               ; preds = %79
  %81 = load i32, ptr %3, align 4
  %82 = add nsw i32 %81, 1
  store i32 %82, ptr %3, align 4
  br label %64

83:                                               ; preds = %64
  store i32 -1, ptr %1, align 4
  br label %109

84:                                               ; preds = %48
  br label %85

85:                                               ; preds = %84
  %86 = load i32, ptr %3, align 4
  %87 = add nsw i32 %86, 1
  store i32 %87, ptr %3, align 4
  br label %45

88:                                               ; preds = %45
  store i32 0, ptr %3, align 4
  br label %89

89:                                               ; preds = %105, %88
  %90 = load i32, ptr %3, align 4
  %91 = icmp sle i32 %90, 2
  br i1 %91, label %92, label %108

92:                                               ; preds = %89
  %93 = load i32, ptr %3, align 4
  %94 = sext i32 %93 to i64
  %95 = getelementptr inbounds [3 x i32], ptr %2, i64 0, i64 %94
  %96 = load i32, ptr %95, align 4
  %97 = icmp sgt i32 %96, 2
  br i1 %97, label %98, label %104

98:                                               ; preds = %92
  %99 = load i32, ptr %3, align 4
  %100 = sext i32 %99 to i64
  %101 = getelementptr inbounds [3 x i32], ptr %2, i64 0, i64 %100
  %102 = load i32, ptr %101, align 4
  %103 = call i32 @close(i32 noundef %102)
  br label %104

104:                                              ; preds = %98, %92
  br label %105

105:                                              ; preds = %104
  %106 = load i32, ptr %3, align 4
  %107 = add nsw i32 %106, 1
  store i32 %107, ptr %3, align 4
  br label %89

108:                                              ; preds = %89
  store i32 0, ptr %1, align 4
  br label %109

109:                                              ; preds = %108, %83, %43
  %110 = load i32, ptr %1, align 4
  ret i32 %110
}