; Function Attrs: nounwind uwtable
define noundef i32 @close_std_descriptors() local_unnamed_addr #1 {
  %1 = alloca [3 x i32], align 4
  %2 = tail call i32 (ptr, i32, ...) @open(ptr noundef nonnull @.str.12, i32 noundef 0) #18
  store i32 %2, ptr %1, align 4
  %3 = tail call i32 (ptr, i32, ...) @open(ptr noundef nonnull @.str.12, i32 noundef 1) #18
  %4 = getelementptr inbounds i8, ptr %1, i64 4
  store i32 %3, ptr %4, align 4
  %5 = tail call i32 (ptr, i32, ...) @open(ptr noundef nonnull @.str.12, i32 noundef 1) #18
  %6 = getelementptr inbounds i8, ptr %1, i64 8
  store i32 %5, ptr %6, align 4
  %7 = icmp eq i32 %2, -1
  %8 = icmp eq i32 %3, -1
  %or.cond = or i1 %7, %8
  %9 = icmp eq i32 %5, -1
  %or.cond5 = or i1 %or.cond, %9
  br i1 %or.cond5, label %10, label %.preheader31

10:                                               ; preds = %0
  %11 = load ptr, ptr @stderr, align 8
  %12 = tail call i64 @fwrite(ptr nonnull @.str.13, i64 21, i64 1, ptr %11) #21
  br label %13

13:                                               ; preds = %10, %18
  %indvars.iv50 = phi i64 [ 0, %10 ], [ %indvars.iv.next51, %18 ]
  %14 = getelementptr inbounds [3 x i32], ptr %1, i64 0, i64 %indvars.iv50
  %15 = load i32, ptr %14, align 4
  %.not28 = icmp eq i32 %15, -1
  br i1 %.not28, label %18, label %16

16:                                               ; preds = %13
  %17 = tail call i32 @close(i32 noundef %15) #18
  br label %18

18:                                               ; preds = %13, %16
  %indvars.iv.next51 = add nuw nsw i64 %indvars.iv50, 1
  %exitcond53.not = icmp eq i64 %indvars.iv.next51, 3
  br i1 %exitcond53.not, label %.loopexit, label %13

.preheader31:                                     ; preds = %0, %33
  %indvars.iv = phi i64 [ %indvars.iv.next, %33 ], [ 0, %0 ]
  %19 = getelementptr inbounds [3 x i32], ptr %1, i64 0, i64 %indvars.iv
  %20 = load i32, ptr %19, align 4
  %21 = trunc nuw nsw i64 %indvars.iv to i32
  %22 = tail call i32 @dup2(i32 noundef %20, i32 noundef %21) #18
  %23 = icmp eq i32 %22, -1
  br i1 %23, label %24, label %33

24:                                               ; preds = %.preheader31
  %25 = load ptr, ptr @stderr, align 8
  %26 = tail call i32 (ptr, ptr, ...) @fprintf(ptr noundef %25, ptr noundef nonnull @.str.14, i32 noundef %20, i32 noundef %21) #22
  br label %27

27:                                               ; preds = %24, %32
  %indvars.iv46 = phi i64 [ 0, %24 ], [ %indvars.iv.next47, %32 ]
  %28 = getelementptr inbounds [3 x i32], ptr %1, i64 0, i64 %indvars.iv46
  %29 = load i32, ptr %28, align 4
  %.not = icmp eq i32 %29, -1
  br i1 %.not, label %32, label %30

30:                                               ; preds = %27
  %31 = tail call i32 @close(i32 noundef %29) #18
  br label %32

32:                                               ; preds = %27, %30
  %indvars.iv.next47 = add nuw nsw i64 %indvars.iv46, 1
  %exitcond49.not = icmp eq i64 %indvars.iv.next47, 3
  br i1 %exitcond49.not, label %.loopexit, label %27

33:                                               ; preds = %.preheader31
  %indvars.iv.next = add nuw nsw i64 %indvars.iv, 1
  %exitcond.not = icmp eq i64 %indvars.iv.next, 3
  br i1 %exitcond.not, label %.preheader, label %.preheader31

.preheader:                                       ; preds = %33, %39
  %indvars.iv42 = phi i64 [ %indvars.iv.next43, %39 ], [ 0, %33 ]
  %34 = getelementptr inbounds [3 x i32], ptr %1, i64 0, i64 %indvars.iv42
  %35 = load i32, ptr %34, align 4
  %36 = icmp sgt i32 %35, 2
  br i1 %36, label %37, label %39

37:                                               ; preds = %.preheader
  %38 = tail call i32 @close(i32 noundef %35) #18
  br label %39

39:                                               ; preds = %.preheader, %37
  %indvars.iv.next43 = add nuw nsw i64 %indvars.iv42, 1
  %exitcond45.not = icmp eq i64 %indvars.iv.next43, 3
  br i1 %exitcond45.not, label %.loopexit, label %.preheader

.loopexit:                                        ; preds = %39, %32, %18
  %.024 = phi i32 [ -1, %18 ], [ -1, %32 ], [ 0, %39 ]
  ret i32 %.024
}